; This file is automatically generated from the corresponding import library
; from Microsoft Windows SDK. Permission to use, copy, modify, and/or
; distribute this software for any purpose with or without fee is hereby
; granted. No copyright is reserved.
;
; In order to generate an import library with GNU DLLTOOL, the `--kill-at`
; option is required.
;
; THE SOFTWARE IS PROVIDED "AS IS" AND THE AUTHOR DISCLAIMS ALL
; WARRANTIES WITH REGARD TO THIS SOFTWARE INCLUDING ALL IMPLIED WARRANTIES
; OF MERCHANTABILITY AND FITNESS. IN NO EVENT SHALL THE AUTHOR BE LIABLE
; FOR ANY SPECIAL, DIRECT, INDIRECT, OR CONSEQUENTIAL DAMAGES OR ANY
; DAMAGES WHATSOEVER RESULTING FROM LOSS OF USE, DATA OR PROFITS, WHETHER IN
; AN ACTION OF CONTRACT, NEGLIGENCE OR OTHER TORTIOUS ACTION, ARISING OUT
; OF OR IN CONNECTION WITH THE USE OR PERFORMANCE OF THIS SOFTWARE.

LIBRARY "framedynos.dll"
EXPORTS
  ??0CAutoEvent@@QEAA@XZ DATA
  ??0CFrameworkQuery@@QEAA@AEBV0@@Z DATA
  ??0CFrameworkQuery@@QEAA@XZ DATA
  ??0CFrameworkQueryEx@@QEAA@AEBV0@@Z DATA
  ??0CFrameworkQueryEx@@QEAA@XZ DATA
  ??0CHPtrArray@@QEAA@XZ DATA
  ??0CHString@@QEAA@AEBV0@@Z DATA
  ??0CHString@@QEAA@GH@Z DATA
  ??0CHString@@QEAA@PEBD@Z DATA
  ??0CHString@@QEAA@PEBE@Z DATA
  ??0CHString@@QEAA@PEBG@Z DATA
  ??0CHString@@QEAA@PEBGH@Z DATA
  ??0CHString@@QEAA@XZ DATA
  ??0CHStringArray@@QEAA@XZ DATA
  ??0CInstance@@QEAA@AEBV0@@Z DATA
  ??0CInstance@@QEAA@PEAUIWbemClassObject@@PEAVMethodContext@@@Z DATA
  ??0CObjectPathParser@@QEAA@W4ObjectParserFlags@@@Z DATA
  ??0CreateMutexAsProcess@@QEAA@PEBG@Z DATA
  ??0CRegistry@@QEAA@AEBV0@@Z DATA
  ??0CRegistry@@QEAA@XZ DATA
  ??0CRegistrySearch@@QEAA@AEBV0@@Z DATA
  ??0CRegistrySearch@@QEAA@XZ DATA
  ??0CThreadBase@@QEAA@AEBV0@@Z DATA
  ??0CThreadBase@@QEAA@W4THREAD_SAFETY_MECHANISM@0@@Z DATA
  ??0CWbemGlueFactory@@QEAA@AEBV0@@Z DATA
  ??0CWbemGlueFactory@@QEAA@PEAJ@Z DATA
  ??0CWbemGlueFactory@@QEAA@XZ DATA
  ??0CWbemProviderGlue@@QEAA@AEBV0@@Z DATA
  ??0CWbemProviderGlue@@QEAA@PEAJ@Z DATA
  ??0CWbemProviderGlue@@QEAA@XZ DATA
  ??0CWinMsgEvent@@QEAA@AEBV0@@Z DATA
  ??0CWinMsgEvent@@QEAA@XZ DATA
  ??0KeyRef@@QEAA@PEBGPEBUtagVARIANT@@@Z DATA
  ??0KeyRef@@QEAA@XZ DATA
  ??0MethodContext@@QEAA@AEBV0@@Z DATA
  ??0MethodContext@@QEAA@PEAUIWbemContext@@PEAVCWbemProviderGlue@@@Z DATA
  ??0ParsedObjectPath@@QEAA@XZ DATA
  ??0Provider@@QEAA@AEBV0@@Z DATA
  ??0Provider@@QEAA@PEBG0@Z DATA
  ??0ProviderLog@@QEAA@AEBV0@@Z DATA
  ??0ProviderLog@@QEAA@XZ DATA
  ??0WBEMTime@@QEAA@AEB_J@Z DATA
  ??0WBEMTime@@QEAA@AEBU_FILETIME@@@Z DATA
  ??0WBEMTime@@QEAA@AEBU_SYSTEMTIME@@@Z DATA
  ??0WBEMTime@@QEAA@AEBUtm@@@Z DATA
  ??0WBEMTime@@QEAA@QEAG@Z DATA
  ??0WBEMTime@@QEAA@XZ DATA
  ??0WBEMTimeSpan@@QEAA@AEB_J@Z DATA
  ??0WBEMTimeSpan@@QEAA@AEBU_FILETIME@@@Z DATA
  ??0WBEMTimeSpan@@QEAA@HHHHHHH@Z DATA
  ??0WBEMTimeSpan@@QEAA@QEAG@Z DATA
  ??0WBEMTimeSpan@@QEAA@XZ DATA
  ??1CAutoEvent@@QEAA@XZ DATA
  ??1CFrameworkQuery@@QEAA@XZ DATA
  ??1CFrameworkQueryEx@@QEAA@XZ DATA
  ??1CHPtrArray@@QEAA@XZ DATA
  ??1CHString@@QEAA@XZ DATA
  ??1CHStringArray@@QEAA@XZ DATA
  ??1CInstance@@UEAA@XZ DATA
  ??1CObjectPathParser@@QEAA@XZ DATA
  ??1CreateMutexAsProcess@@QEAA@XZ DATA
  ??1CRegistry@@QEAA@XZ DATA
  ??1CRegistrySearch@@QEAA@XZ DATA
  ??1CThreadBase@@UEAA@XZ DATA
  ??1CWbemGlueFactory@@QEAA@XZ DATA
  ??1CWbemProviderGlue@@QEAA@XZ DATA
  ??1CWinMsgEvent@@QEAA@XZ DATA
  ??1KeyRef@@QEAA@XZ DATA
  ??1MethodContext@@UEAA@XZ DATA
  ??1ParsedObjectPath@@QEAA@XZ DATA
  ??1Provider@@UEAA@XZ DATA
  ??1ProviderLog@@UEAA@XZ DATA
  ??4CAutoEvent@@QEAAAEAV0@AEBV0@@Z DATA
  ??4CFrameworkQuery@@QEAAAEAV0@AEBV0@@Z DATA
  ??4CFrameworkQueryEx@@QEAAAEAV0@AEBV0@@Z DATA
  ??4CHPtrArray@@QEAAAEAV0@AEBV0@@Z DATA
  ??4CHString@@QEAAAEBV0@AEBV0@@Z DATA
  ??4CHString@@QEAAAEBV0@D@Z DATA
  ??4CHString@@QEAAAEBV0@G@Z DATA
  ??4CHString@@QEAAAEBV0@PEAV0@@Z DATA
  ??4CHString@@QEAAAEBV0@PEBD@Z DATA
  ??4CHString@@QEAAAEBV0@PEBE@Z DATA
  ??4CHString@@QEAAAEBV0@PEBG@Z DATA
  ??4CHStringArray@@QEAAAEAV0@AEBV0@@Z DATA
  ??4CInstance@@QEAAAEAV0@AEBV0@@Z DATA
  ??4CObjectPathParser@@QEAAAEAV0@AEBV0@@Z DATA
  ??4CreateMutexAsProcess@@QEAAAEAV0@AEBV0@@Z DATA
  ??4CRegistry@@QEAAAEAV0@AEBV0@@Z DATA
  ??4CRegistrySearch@@QEAAAEAV0@AEBV0@@Z DATA
  ??4CThreadBase@@QEAAAEAV0@AEBV0@@Z DATA
  ??4CWbemGlueFactory@@QEAAAEAV0@AEBV0@@Z DATA
  ??4CWbemProviderGlue@@QEAAAEAV0@AEBV0@@Z DATA
  ??4CWinMsgEvent@@QEAAAEAV0@AEBV0@@Z DATA
  ??4KeyRef@@QEAAAEAU0@AEBU0@@Z DATA
  ??4MethodContext@@QEAAAEAV0@AEBV0@@Z DATA
  ??4ParsedObjectPath@@QEAAAEAU0@AEBU0@@Z DATA
  ??4Provider@@QEAAAEAV0@AEBV0@@Z DATA
  ??4ProviderLog@@QEAAAEAV0@AEBV0@@Z DATA
  ??4WBEMTime@@QEAAAEAV0@$$QEAV0@@Z DATA
  ??4WBEMTime@@QEAAAEAV0@AEBV0@@Z DATA
  ??4WBEMTime@@QEAAAEBV0@AEB_J@Z DATA
  ??4WBEMTime@@QEAAAEBV0@AEBU_FILETIME@@@Z DATA
  ??4WBEMTime@@QEAAAEBV0@AEBU_SYSTEMTIME@@@Z DATA
  ??4WBEMTime@@QEAAAEBV0@AEBUtm@@@Z DATA
  ??4WBEMTime@@QEAAAEBV0@QEAG@Z DATA
  ??4WBEMTimeSpan@@QEAAAEAV0@$$QEAV0@@Z DATA
  ??4WBEMTimeSpan@@QEAAAEAV0@AEBV0@@Z DATA
  ??4WBEMTimeSpan@@QEAAAEBV0@AEB_J@Z DATA
  ??4WBEMTimeSpan@@QEAAAEBV0@AEBU_FILETIME@@@Z DATA
  ??4WBEMTimeSpan@@QEAAAEBV0@QEAG@Z DATA
  ??8WBEMTime@@QEBAHAEBV0@@Z DATA
  ??8WBEMTimeSpan@@QEBAHAEBV0@@Z DATA
  ??9WBEMTime@@QEBAHAEBV0@@Z DATA
  ??9WBEMTimeSpan@@QEBAHAEBV0@@Z DATA
  ??_FCObjectPathParser@@QEAAXXZ DATA
  ??_FCThreadBase@@QEAAXXZ DATA
  ??ACHPtrArray@@QEAAAEAPEAXH@Z DATA
  ??ACHPtrArray@@QEBAPEAXH@Z DATA
  ??ACHString@@QEBAGH@Z DATA
  ??ACHStringArray@@QEAAAEAVCHString@@H@Z DATA
  ??ACHStringArray@@QEBA?AVCHString@@H@Z DATA
  ??BCHString@@QEBAPEBGXZ DATA
  ??GWBEMTime@@QEAA?AVWBEMTimeSpan@@AEBV0@@Z DATA
  ??GWBEMTime@@QEBA?AV0@AEBVWBEMTimeSpan@@@Z DATA
  ??GWBEMTimeSpan@@QEBA?AV0@AEBV0@@Z DATA
  ??H@YA?AVCHString@@AEBV0@0@Z DATA
  ??H@YA?AVCHString@@AEBV0@G@Z DATA
  ??H@YA?AVCHString@@AEBV0@PEBG@Z DATA
  ??H@YA?AVCHString@@GAEBV0@@Z DATA
  ??H@YA?AVCHString@@PEBGAEBV0@@Z DATA
  ??HWBEMTime@@QEBA?AV0@AEBVWBEMTimeSpan@@@Z DATA
  ??HWBEMTimeSpan@@QEBA?AV0@AEBV0@@Z DATA
  ??MWBEMTime@@QEBAHAEBV0@@Z DATA
  ??MWBEMTimeSpan@@QEBAHAEBV0@@Z DATA
  ??NWBEMTime@@QEBAHAEBV0@@Z DATA
  ??NWBEMTimeSpan@@QEBAHAEBV0@@Z DATA
  ??OWBEMTime@@QEBAHAEBV0@@Z DATA
  ??OWBEMTimeSpan@@QEBAHAEBV0@@Z DATA
  ??PWBEMTime@@QEBAHAEBV0@@Z DATA
  ??PWBEMTimeSpan@@QEBAHAEBV0@@Z DATA
  ??YCHString@@QEAAAEBV0@AEBV0@@Z DATA
  ??YCHString@@QEAAAEBV0@D@Z DATA
  ??YCHString@@QEAAAEBV0@G@Z DATA
  ??YCHString@@QEAAAEBV0@PEBG@Z DATA
  ??YWBEMTime@@QEAAAEBV0@AEBVWBEMTimeSpan@@@Z DATA
  ??YWBEMTimeSpan@@QEAAAEBV0@AEBV0@@Z DATA
  ??ZWBEMTime@@QEAAAEBV0@AEBVWBEMTimeSpan@@@Z DATA
  ??ZWBEMTimeSpan@@QEAAAEBV0@AEBV0@@Z DATA
  ?Add@CHPtrArray@@QEAAHPEAX@Z DATA
  ?Add@CHStringArray@@QEAAHPEBG@Z DATA
  ?AddFlushPtr@CWbemProviderGlue@@AEAAXPEAX@Z DATA
  ?AddKeyRef@ParsedObjectPath@@QEAAHPEAUKeyRef@@@Z DATA
  ?AddKeyRef@ParsedObjectPath@@QEAAHPEBGPEBUtagVARIANT@@@Z DATA
  ?AddKeyRefEx@ParsedObjectPath@@QEAAHPEBGPEBUtagVARIANT@@@Z DATA
  ?AddNamespace@ParsedObjectPath@@QEAAHPEBG@Z DATA
  ?AddProviderToMap@CWbemProviderGlue@@CAPEAVProvider@@PEBG0PEAV2@@Z DATA
  ?AddRef@CInstance@@QEAAJXZ DATA
  ?AddRef@CThreadBase@@QEAAJXZ DATA
  ?AddRef@CWbemGlueFactory@@UEAAKXZ DATA
  ?AddRef@CWbemProviderGlue@@UEAAKXZ DATA
  ?AddRef@MethodContext@@QEAAJXZ DATA
  ?AddToFactoryMap@CWbemProviderGlue@@KAXPEBVCWbemGlueFactory@@PEAJ@Z DATA
  ?AllocBeforeWrite@CHString@@IEAAXH@Z DATA
  ?AllocBuffer@CHString@@IEAAXH@Z DATA
  ?AllocCopy@CHString@@IEBAXAEAV1@HHH@Z DATA
  ?AllocSysString@CHString@@QEBAPEAGXZ DATA
  ?AllPropertiesAreRequired@CFrameworkQuery@@QEAA_NXZ DATA
  ?Append@CHPtrArray@@QEAAHAEBV1@@Z DATA
  ?Append@CHStringArray@@QEAAHAEBV1@@Z DATA
  ?AssignCopy@CHString@@IEAAXHPEBG@Z DATA
  ?begin_parse@CObjectPathParser@@AEAAHXZ DATA
  ?BeginRead@CThreadBase@@QEAAHK@Z DATA
  ?BeginWrite@CThreadBase@@QEAAHK@Z DATA
  ?CancelAsyncCall@CWbemProviderGlue@@UEAAJPEAUIWbemObjectSink@@@Z DATA
  ?CancelAsyncRequest@CWbemProviderGlue@@UEAAJJ@Z DATA
  ?CheckAndAddToList@CRegistrySearch@@AEAAXPEAVCRegistry@@VCHString@@1AEAVCHPtrArray@@11H@Z DATA
  ?CheckFileSize@ProviderLog@@AEAAXAEAT_LARGE_INTEGER@@AEBVCHString@@@Z DATA
  ?CheckImpersonationLevel@CWbemProviderGlue@@CAJXZ DATA
  ?Clear@WBEMTime@@QEAAXXZ DATA
  ?Clear@WBEMTimeSpan@@QEAAXXZ DATA
  ?ClearKeys@ParsedObjectPath@@QEAAXXZ DATA
  ?Close@CRegistry@@QEAAXXZ DATA
  ?CloseSubKey@CRegistry@@AEAAXXZ DATA
  ?Collate@CHString@@QEBAHPEBG@Z DATA
  ?Commit@CInstance@@QEAAJXZ DATA
  ?Commit@Provider@@IEAAJPEAVCInstance@@_N@Z DATA
  ?Compare@CHString@@QEBAHPEBG@Z DATA
  ?CompareNoCase@CHString@@QEBAHPEBG@Z DATA
  ?ConcatCopy@CHString@@IEAAXHPEBGH0@Z DATA
  ?ConcatInPlace@CHString@@IEAAXHPEBG@Z DATA
  ?Copy@CHPtrArray@@QEAAXAEBV1@@Z DATA
  ?Copy@CHStringArray@@QEAAXAEBV1@@Z DATA
  ?CopyBeforeWrite@CHString@@IEAAXXZ DATA
  ?Create@CWbemGlueFactory@@SAPEAV1@PEAJ@Z DATA
  ?Create@CWbemGlueFactory@@SAPEAV1@XZ DATA
  ?CreateClassEnum@CWbemProviderGlue@@UEAAJQEAGJPEAUIWbemContext@@PEAPEAUIEnumWbemClassObject@@@Z DATA
  ?CreateClassEnumAsync@CWbemProviderGlue@@UEAAJQEAGJPEAUIWbemContext@@PEAUIWbemObjectSink@@@Z DATA
  ?CreateInstance@CWbemGlueFactory@@UEAAJPEAUIUnknown@@AEBU_GUID@@PEAPEAX@Z DATA
  ?CreateInstanceEnum@CWbemProviderGlue@@UEAAJQEAGJPEAUIWbemContext@@PEAPEAUIEnumWbemClassObject@@@Z DATA
  ?CreateInstanceEnum@Provider@@AEAAJPEAVMethodContext@@J@Z DATA
  ?CreateInstanceEnumAsync@CWbemProviderGlue@@UEAAJQEAGJPEAUIWbemContext@@PEAUIWbemObjectSink@@@Z DATA
  ?CreateMsgProvider@CWinMsgEvent@@CAXXZ DATA
  ?CreateMsgWindow@CWinMsgEvent@@CAPEAUHWND__@@XZ DATA
  ?CreateNewInstance@Provider@@IEAAPEAVCInstance@@PEAVMethodContext@@@Z DATA
  ?CreateOpen@CRegistry@@QEAAJPEAUHKEY__@@PEBGPEAGKKPEAU_SECURITY_ATTRIBUTES@@PEAK@Z DATA
  ?CtrlHandlerRoutine@CWinMsgEvent@@CAHK@Z DATA
  ?DecrementMapCount@CWbemProviderGlue@@KAJPEAJ@Z DATA
  ?DecrementMapCount@CWbemProviderGlue@@KAJPEBVCWbemGlueFactory@@@Z DATA
  ?DecrementObjectCount@CWbemProviderGlue@@SAJXZ DATA
  ?DeleteClass@CWbemProviderGlue@@UEAAJQEAGJPEAUIWbemContext@@PEAPEAUIWbemCallResult@@@Z DATA
  ?DeleteClassAsync@CWbemProviderGlue@@UEAAJQEAGJPEAUIWbemContext@@PEAUIWbemObjectSink@@@Z DATA
  ?DeleteCurrentKeyValue@CRegistry@@QEAAKPEAUHKEY__@@PEBG@Z DATA
  ?DeleteCurrentKeyValue@CRegistry@@QEAAKPEBG@Z DATA
  ?DeleteInstance@CWbemProviderGlue@@UEAAJQEAGJPEAUIWbemContext@@PEAPEAUIWbemCallResult@@@Z DATA
  ?DeleteInstance@Provider@@AEAAJPEAUParsedObjectPath@@JPEAVMethodContext@@@Z DATA
  ?DeleteInstance@Provider@@MEAAJAEBVCInstance@@J@Z DATA
  ?DeleteInstanceAsync@CWbemProviderGlue@@UEAAJQEAGJPEAUIWbemContext@@PEAUIWbemObjectSink@@@Z DATA
  ?DeleteKey@CRegistry@@QEAAJPEAVCHString@@@Z DATA
  ?DeleteValue@CRegistry@@QEAAJPEBG@Z DATA
  ?Destroy@CWbemGlueFactory@@QEAAXXZ DATA
  ?DestroyMsgWindow@CWinMsgEvent@@CAXXZ DATA
  ?dwThreadProc@CWinMsgEvent@@CAKPEAX@Z DATA
  ?ElementAt@CHPtrArray@@QEAAAEAPEAXH@Z DATA
  ?ElementAt@CHStringArray@@QEAAAEAVCHString@@H@Z DATA
  ?Empty@CHString@@QEAAXXZ DATA
  ?Empty@CObjectPathParser@@AEAAXXZ DATA
  ?EndRead@CThreadBase@@QEAAXXZ DATA
  ?EndWrite@CThreadBase@@QEAAXXZ DATA
  ?EnumerateAndGetValues@CRegistry@@QEAAJAEAKAEAPEAGAEAPEAE@Z DATA
  ?EnumerateInstances@Provider@@MEAAJPEAVMethodContext@@J@Z DATA
  ?ExecMethod@CWbemProviderGlue@@UEAAJQEAG0JPEAUIWbemContext@@PEAUIWbemClassObject@@PEAPEAU3@PEAPEAUIWbemCallResult@@@Z DATA
  ?ExecMethod@Provider@@AEAAJPEAUParsedObjectPath@@PEAGJPEAVCInstance@@2PEAVMethodContext@@@Z DATA
  ?ExecMethod@Provider@@MEAAJAEBVCInstance@@QEAGPEAV2@2J@Z DATA
  ?ExecMethodAsync@CWbemProviderGlue@@UEAAJQEAG0JPEAUIWbemContext@@PEAUIWbemClassObject@@PEAUIWbemObjectSink@@@Z DATA
  ?ExecNotificationQuery@CWbemProviderGlue@@UEAAJQEAG0JPEAUIWbemContext@@PEAPEAUIEnumWbemClassObject@@@Z DATA
  ?ExecNotificationQueryAsync@CWbemProviderGlue@@UEAAJQEAG0JPEAUIWbemContext@@PEAUIWbemObjectSink@@@Z DATA
  ?ExecQuery@CWbemProviderGlue@@UEAAJQEAG0JPEAUIWbemContext@@PEAPEAUIEnumWbemClassObject@@@Z DATA
  ?ExecQuery@Provider@@MEAAJPEAVMethodContext@@AEAVCFrameworkQuery@@J@Z DATA
  ?ExecQueryAsync@CWbemProviderGlue@@UEAAJQEAG0JPEAUIWbemContext@@PEAUIWbemObjectSink@@@Z DATA
  ?ExecuteQuery@Provider@@AEAAJPEAVMethodContext@@AEAVCFrameworkQuery@@J@Z DATA
  ?FillInstance@CWbemProviderGlue@@SAJPEAVCInstance@@PEBG@Z DATA
  ?FillInstance@CWbemProviderGlue@@SAJPEAVMethodContext@@PEAVCInstance@@@Z DATA
  ?Find@CHString@@QEBAHG@Z DATA
  ?Find@CHString@@QEBAHPEBG@Z DATA
  ?FindOneOf@CHString@@QEBAHPEBG@Z DATA
  ?Flush@Provider@@MEAAXXZ DATA
  ?FlushAll@CWbemProviderGlue@@AEAAXXZ DATA
  ?Format@CHString@@QEAAXIZZ DATA
  ?Format@CHString@@QEAAXPEBGZZ DATA
  ?FormatMessageW@CHString@@QEAAXIZZ DATA
  ?FormatMessageW@CHString@@QEAAXPEBGZZ DATA
  ?FormatV@CHString@@QEAAXPEBGPEAD@Z DATA
  ?FrameworkLogin@CWbemProviderGlue@@SAXPEBGPEAVProvider@@0@Z DATA
  ?FrameworkLoginDLL@CWbemProviderGlue@@SAHPEBG@Z DATA
  ?FrameworkLoginDLL@CWbemProviderGlue@@SAHPEBGPEAJ@Z DATA
  ?FrameworkLogoff@CWbemProviderGlue@@SAXPEBG0@Z DATA
  ?FrameworkLogoffDLL@CWbemProviderGlue@@SAHPEBG@Z DATA
  ?FrameworkLogoffDLL@CWbemProviderGlue@@SAHPEBGPEAJ@Z DATA
  ?Free@CObjectPathParser@@QEAAXPEAUParsedObjectPath@@@Z DATA
  ?FreeExtra@CHPtrArray@@QEAAXXZ DATA
  ?FreeExtra@CHString@@QEAAXXZ DATA
  ?FreeExtra@CHStringArray@@QEAAXXZ DATA
  ?FreeSearchList@CRegistrySearch@@QEAAHHAEAVCHPtrArray@@@Z DATA
  ?GetAllDerivedInstances@CWbemProviderGlue@@SAJPEBGPEAV?$TRefPointerCollection@VCInstance@@@@PEAVMethodContext@@0@Z DATA
  ?GetAllDerivedInstancesAsynch@CWbemProviderGlue@@SAJPEBGPEAVProvider@@P6AJ1PEAVCInstance@@PEAVMethodContext@@PEAX@Z034@Z DATA
  ?GetAllInstances@CWbemProviderGlue@@SAJPEBGPEAV?$TRefPointerCollection@VCInstance@@@@0PEAVMethodContext@@@Z DATA
  ?GetAllInstancesAsynch@CWbemProviderGlue@@SAJPEBGPEAVProvider@@P6AJ1PEAVCInstance@@PEAVMethodContext@@PEAX@Z034@Z DATA
  ?GetAllocLength@CHString@@QEBAHXZ DATA
  ?GetAt@CHPtrArray@@QEBAPEAXH@Z DATA
  ?GetAt@CHString@@QEBAGH@Z DATA
  ?GetAt@CHStringArray@@QEBA?AVCHString@@H@Z DATA
  ?Getbool@CInstance@@QEBA_NPEBGAEA_N@Z DATA
  ?GetBSTR@WBEMTime@@QEBAPEAGXZ DATA
  ?GetBSTR@WBEMTimeSpan@@QEBAPEAGXZ DATA
  ?GetBuffer@CHString@@QEAAPEAGH@Z DATA
  ?GetBufferSetLength@CHString@@QEAAPEAGH@Z DATA
  ?GetByte@CInstance@@QEBA_NPEBGAEAE@Z DATA
  ?GetCHString@CInstance@@QEBA_NPEBGAEAVCHString@@@Z DATA
  ?GetClassNameW@CRegistry@@QEAAPEAGXZ DATA
  ?GetClassObjectInterface@CInstance@@QEAAPEAUIWbemClassObject@@XZ DATA
  ?GetClassObjectInterface@Provider@@AEAAPEAUIWbemClassObject@@PEAVMethodContext@@@Z DATA
  ?GetComputerNameW@CWbemProviderGlue@@CAXAEAVCHString@@@Z DATA
  ?GetCSDVersion@CWbemProviderGlue@@SAPEBGXZ DATA
  ?GetCurrentBinaryKeyValue@CRegistry@@QEAAKPEAUHKEY__@@PEBGPEAEPEAK@Z DATA
  ?GetCurrentBinaryKeyValue@CRegistry@@QEAAKPEBGAEAVCHString@@@Z DATA
  ?GetCurrentBinaryKeyValue@CRegistry@@QEAAKPEBGPEAEPEAK@Z DATA
  ?GetCurrentKeyValue@CRegistry@@QEAAKPEAUHKEY__@@PEBGAEAK@Z DATA
  ?GetCurrentKeyValue@CRegistry@@QEAAKPEAUHKEY__@@PEBGAEAVCHString@@@Z DATA
  ?GetCurrentKeyValue@CRegistry@@QEAAKPEAUHKEY__@@PEBGAEAVCHStringArray@@@Z DATA
  ?GetCurrentKeyValue@CRegistry@@QEAAKPEBGAEAK@Z DATA
  ?GetCurrentKeyValue@CRegistry@@QEAAKPEBGAEAVCHString@@@Z DATA
  ?GetCurrentKeyValue@CRegistry@@QEAAKPEBGAEAVCHStringArray@@@Z DATA
  ?GetCurrentRawKeyValue@CRegistry@@AEAAKPEAUHKEY__@@PEBGPEAXPEAK3@Z DATA
  ?GetCurrentRawSubKeyValue@CRegistry@@AEAAKPEBGPEAXPEAK2@Z DATA
  ?GetCurrentSubKeyCount@CRegistry@@QEAAKXZ DATA
  ?GetCurrentSubKeyName@CRegistry@@QEAAKAEAVCHString@@@Z DATA
  ?GetCurrentSubKeyPath@CRegistry@@QEAAKAEAVCHString@@@Z DATA
  ?GetCurrentSubKeyValue@CRegistry@@QEAAKPEBGAEAK@Z DATA
  ?GetCurrentSubKeyValue@CRegistry@@QEAAKPEBGAEAVCHString@@@Z DATA
  ?GetCurrentSubKeyValue@CRegistry@@QEAAKPEBGPEAXPEAK@Z DATA
  ?GetData@CHPtrArray@@QEAAPEAPEAXXZ DATA
  ?GetData@CHPtrArray@@QEBAPEAPEBXXZ DATA
  ?GetData@CHString@@IEBAPEAUCHStringData@@XZ DATA
  ?GetData@CHStringArray@@QEAAPEAVCHString@@XZ DATA
  ?GetData@CHStringArray@@QEBAPEBVCHString@@XZ DATA
  ?GetDateTime@CInstance@@QEBA_NPEBGAEAVWBEMTime@@@Z DATA
  ?GetDMTF@WBEMTime@@QEBAPEAGH@Z DATA
  ?GetDMTFNonNtfs@WBEMTime@@QEBAPEAGXZ DATA
  ?GetDOUBLE@CInstance@@QEBA_NPEBGAEAN@Z DATA
  ?GetDWORD@CInstance@@QEBA_NPEBGAEAK@Z DATA
  ?GetEmbeddedObject@CInstance@@QEBA_NPEBGPEAPEAV1@PEAVMethodContext@@@Z DATA
  ?GetEmptyInstance@CWbemProviderGlue@@SAJPEAVMethodContext@@PEBGPEAPEAVCInstance@@1@Z DATA
  ?GetEmptyInstance@CWbemProviderGlue@@SAJPEBGPEAPEAVCInstance@@0@Z DATA
  ?GetFILETIME@WBEMTime@@QEBAHPEAU_FILETIME@@@Z DATA
  ?GetFILETIME@WBEMTimeSpan@@QEBAHPEAU_FILETIME@@@Z DATA
  ?GethKey@CRegistry@@QEAAPEAUHKEY__@@XZ DATA
  ?GetInstanceByPath@CWbemProviderGlue@@SAJPEBGPEAPEAVCInstance@@PEAVMethodContext@@@Z DATA
  ?GetInstanceFromCIMOM@CWbemProviderGlue@@CAJPEBG0PEAVMethodContext@@PEAPEAVCInstance@@@Z DATA
  ?GetInstanceKeysByPath@CWbemProviderGlue@@SAJPEBGPEAPEAVCInstance@@PEAVMethodContext@@@Z DATA
  ?GetInstancePropertiesByPath@CWbemProviderGlue@@SAJPEBGPEAPEAVCInstance@@PEAVMethodContext@@AEAVCHStringArray@@@Z DATA
  ?GetInstancesByQuery@CWbemProviderGlue@@SAJPEBGPEAV?$TRefPointerCollection@VCInstance@@@@PEAVMethodContext@@0@Z DATA
  ?GetInstancesByQueryAsynch@CWbemProviderGlue@@SAJPEBGPEAVProvider@@P6AJ1PEAVCInstance@@PEAVMethodContext@@PEAX@Z034@Z DATA
  ?GetIWBEMContext@MethodContext@@UEAAPEAUIWbemContext@@XZ DATA
  ?GetKeyString@ParsedObjectPath@@QEAAPEAGXZ DATA
  ?GetLength@CHString@@QEBAHXZ DATA
  ?GetLocalComputerName@Provider@@IEAAAEBVCHString@@XZ DATA
  ?GetLocalInstancePath@Provider@@IEAA_NPEBVCInstance@@AEAVCHString@@@Z DATA
  ?GetLocalOffsetForDate@WBEMTime@@SAJAEB_J@Z DATA
  ?GetLocalOffsetForDate@WBEMTime@@SAJPEBU_FILETIME@@@Z DATA
  ?GetLocalOffsetForDate@WBEMTime@@SAJPEBU_SYSTEMTIME@@@Z DATA
  ?GetLocalOffsetForDate@WBEMTime@@SAJPEBUtm@@@Z DATA
  ?GetLongestClassStringSize@CRegistry@@QEAAKXZ DATA
  ?GetLongestSubKeySize@CRegistry@@QEAAKXZ DATA
  ?GetLongestValueData@CRegistry@@QEAAKXZ DATA
  ?GetLongestValueName@CRegistry@@QEAAKXZ DATA
  ?GetMapCountPtr@CWbemProviderGlue@@KAPEAJPEBVCWbemGlueFactory@@@Z DATA
  ?GetMethodContext@CInstance@@QEBAPEAVMethodContext@@XZ DATA
  ?GetNamespace@CFrameworkQuery@@IEAAAEBVCHString@@XZ DATA
  ?GetNamespace@Provider@@IEAAAEBVCHString@@XZ DATA
  ?GetNamespaceConnection@CWbemProviderGlue@@SAPEAUIWbemServices@@PEBG@Z DATA
  ?GetNamespaceConnection@CWbemProviderGlue@@SAPEAUIWbemServices@@PEBGPEAVMethodContext@@@Z DATA
  ?GetNamespacePart@ParsedObjectPath@@QEAAPEAGXZ DATA
  ?GetObject@CWbemProviderGlue@@UEAAJQEAGJPEAUIWbemContext@@PEAPEAUIWbemClassObject@@PEAPEAUIWbemCallResult@@@Z DATA
  ?GetObject@Provider@@AEAAJPEAUParsedObjectPath@@PEAVMethodContext@@J@Z DATA
  ?GetObject@Provider@@MEAAJPEAVCInstance@@J@Z DATA
  ?GetObject@Provider@@MEAAJPEAVCInstance@@JAEAVCFrameworkQuery@@@Z DATA
  ?GetObjectAsync@CWbemProviderGlue@@UEAAJQEAGJPEAUIWbemContext@@PEAUIWbemObjectSink@@@Z DATA
  ?GetOSMajorVersion@CWbemProviderGlue@@SAKXZ DATA
  ?GetParentNamespacePart@ParsedObjectPath@@QEAAPEAGXZ DATA
  ?GetPlatform@CWbemProviderGlue@@SAKXZ DATA
  ?GetPropertyBitMask@CFrameworkQueryEx@@QEAAXAEBVCHPtrArray@@PEAX@Z DATA
  ?GetProviderGlue@MethodContext@@AEAAPEAVCWbemProviderGlue@@XZ DATA
  ?GetProviderName@Provider@@IEAAAEBVCHString@@XZ DATA
  ?GetQuery@CFrameworkQuery@@QEAAAEBVCHString@@XZ DATA
  ?GetQueryClassName@CFrameworkQuery@@QEAAPEAGXZ DATA
  ?GetRelativePath@CObjectPathParser@@SAPEAGPEAG@Z DATA
  ?GetRequiredProperties@CFrameworkQuery@@QEAAXAEAVCHStringArray@@@Z DATA
  ?GetSize@CHPtrArray@@QEBAHXZ DATA
  ?GetSize@CHStringArray@@QEBAHXZ DATA
  ?GetStatus@CInstance@@QEBA_NPEBGAEA_NAEAG@Z DATA
  ?GetStatusObject@CWbemProviderGlue@@CAPEAUIWbemClassObject@@PEAVMethodContext@@PEBG@Z DATA
  ?GetStatusObject@MethodContext@@QEAAPEAUIWbemClassObject@@XZ DATA
  ?GetStringArray@CInstance@@QEBA_NPEBGAEAPEAUtagSAFEARRAY@@@Z DATA
  ?GetStructtm@WBEMTime@@QEBAHPEAUtm@@@Z DATA
  ?GetSYSTEMTIME@WBEMTime@@QEBAHPEAU_SYSTEMTIME@@@Z DATA
  ?GetTime@WBEMTime@@QEBA_KXZ DATA
  ?GetTime@WBEMTimeSpan@@QEBA_KXZ DATA
  ?Gettime_t@WBEMTime@@QEBAHPEA_J@Z DATA
  ?Gettime_t@WBEMTimeSpan@@QEBAHPEA_J@Z DATA
  ?GetTimeSpan@CInstance@@QEBA_NPEBGAEAVWBEMTimeSpan@@@Z DATA
  ?GetUpperBound@CHPtrArray@@QEBAHXZ DATA
  ?GetUpperBound@CHStringArray@@QEBAHXZ DATA
  ?GetValueCount@CRegistry@@QEAAKXZ DATA
  ?GetValuesForProp@CFrameworkQuery@@QEAAJPEBGAEAVCHStringArray@@@Z DATA
  ?GetVariant@CInstance@@QEBA_NPEBGAEAUtagVARIANT@@@Z DATA
  ?GetWBEMINT16@CInstance@@QEBA_NPEBGAEAF@Z DATA
  ?GetWBEMINT64@CInstance@@QEBA_NPEBGAEA_J@Z DATA
  ?GetWBEMINT64@CInstance@@QEBA_NPEBGAEA_K@Z DATA
  ?GetWBEMINT64@CInstance@@QEBA_NPEBGAEAVCHString@@@Z DATA
  ?GetWCHAR@CInstance@@QEBA_NPEBGPEAPEAG@Z DATA
  ?GetWORD@CInstance@@QEBA_NPEBGAEAG@Z DATA
  ?ident_becomes_class@CObjectPathParser@@AEAAHXZ DATA
  ?ident_becomes_ns@CObjectPathParser@@AEAAHXZ DATA
  ?IncrementMapCount@CWbemProviderGlue@@KAJPEAJ@Z DATA
  ?IncrementMapCount@CWbemProviderGlue@@KAJPEBVCWbemGlueFactory@@@Z DATA
  ?IncrementObjectCount@CWbemProviderGlue@@SAXXZ DATA
  ?Init2@CFrameworkQuery@@QEAAXPEAUIWbemClassObject@@@Z DATA
  ?Init@CFrameworkQuery@@QEAAJPEAUParsedObjectPath@@PEAUIWbemContext@@PEBGAEAVCHString@@@Z DATA
  ?Init@CFrameworkQuery@@QEAAJQEAG0JAEAVCHString@@@Z DATA
  ?Init@CHString@@IEAAXXZ DATA
  ?Init@CWbemProviderGlue@@CAXXZ DATA
  ?InitComputerName@Provider@@CAXXZ DATA
  ?InitEx@CFrameworkQueryEx@@UEAAJQEAG0JAEAVCHString@@@Z DATA
  ?initFailed@Provider@@SAHXZ DATA
  ?Initialize@CWbemProviderGlue@@UEAAJPEAGJ00PEAUIWbemServices@@PEAUIWbemContext@@PEAUIWbemProviderInitSink@@@Z DATA
  ?InsertAt@CHPtrArray@@QEAAXHPEAV1@@Z DATA
  ?InsertAt@CHPtrArray@@QEAAXHPEAXH@Z DATA
  ?InsertAt@CHStringArray@@QEAAXHPEAV1@@Z DATA
  ?InsertAt@CHStringArray@@QEAAXHPEBGH@Z DATA
  ?InternalGetNamespaceConnection@CWbemProviderGlue@@AEAAPEAUIWbemServices@@PEBG@Z DATA
  ?Is3TokenOR@CFrameworkQueryEx@@QEAAHPEBG0AEAUtagVARIANT@@1@Z DATA
  ?IsClass@ParsedObjectPath@@QEAAHXZ DATA
  ?IsDerivedFrom@CWbemProviderGlue@@SA_NPEBG0PEAVMethodContext@@0@Z DATA
  ?IsEmpty@CHString@@QEBAHXZ DATA
  ?IsExtended@CFrameworkQueryEx@@UEAA_NXZ DATA
  ?IsInList@CFrameworkQuery@@IEAAKAEBVCHStringArray@@PEBG@Z DATA
  ?IsInstance@ParsedObjectPath@@QEAAHXZ DATA
  ?IsLocal@ParsedObjectPath@@QEAAHPEBG@Z DATA
  ?IsLoggingOn@ProviderLog@@QEAA?AW4LogLevel@1@PEAVCHString@@@Z DATA
  ?IsNTokenAnd@CFrameworkQueryEx@@QEAAHAEAVCHStringArray@@AEAVCHPtrArray@@@Z DATA
  ?IsNull@CInstance@@QEBA_NPEBG@Z DATA
  ?IsObject@ParsedObjectPath@@QEAAHXZ DATA
  ?IsOk@WBEMTime@@QEBA_NXZ DATA
  ?IsOk@WBEMTimeSpan@@QEBA_NXZ DATA
  ?IsPropertyRequired@CFrameworkQuery@@QEAA_NPEBG@Z DATA
  ?IsReference@CFrameworkQuery@@IEAAHPEBG@Z DATA
  ?IsRelative@ParsedObjectPath@@QEAAHPEBG0@Z DATA
  ?key_const@CObjectPathParser@@AEAAHXZ DATA
  ?keyref@CObjectPathParser@@AEAAHXZ DATA
  ?keyref_list@CObjectPathParser@@AEAAHXZ DATA
  ?keyref_term@CObjectPathParser@@AEAAHXZ DATA
  ?KeysOnly@CFrameworkQuery@@QEAA_NXZ DATA
  ?Left@CHString@@QEBA?AV1@H@Z DATA
  ?LoadStringW@CHString@@IEAAHIPEAGI@Z DATA
  ?LoadStringW@CHString@@QEAAHI@Z DATA
  ?LocalLogMessage@ProviderLog@@QEAAXPEBG0HW4LogLevel@1@@Z DATA
  ?LocalLogMessage@ProviderLog@@QEAAXPEBGHW4LogLevel@1@0ZZ DATA
  ?LocateKeyByNameOrValueName@CRegistrySearch@@QEAAHPEAUHKEY__@@PEBG1PEAPEBGKAEAVCHString@@3@Z DATA
  ?Lock@CThreadBase@@AEAAXXZ DATA
  ?LockBuffer@CHString@@QEAAPEAGXZ DATA
  ?LockFactoryMap@CWbemProviderGlue@@CAXXZ DATA
  ?LockProviderMap@CWbemProviderGlue@@CAXXZ DATA
  ?LockServer@CWbemGlueFactory@@UEAAJH@Z DATA
  ?LogError@CInstance@@IEBAXPEBG00J@Z DATA
  ?MakeLocalPath@Provider@@IEAA?AVCHString@@AEBV2@@Z DATA
  ?MakeLower@CHString@@QEAAXXZ DATA
  ?MakeReverse@CHString@@QEAAXXZ DATA
  ?MakeUpper@CHString@@QEAAXXZ DATA
  ?Mid@CHString@@QEBA?AV1@H@Z DATA
  ?Mid@CHString@@QEBA?AV1@HH@Z DATA
  ?MsgWndProc@CWinMsgEvent@@CA_JPEAUHWND__@@I_K_J@Z DATA
  ?myRegCreateKeyEx@CRegistry@@AEAAJPEAUHKEY__@@PEBGKPEAGKKQEAU_SECURITY_ATTRIBUTES@@PEAPEAU2@PEAK@Z DATA
  ?myRegDeleteKey@CRegistry@@AEAAJPEAUHKEY__@@PEBG@Z DATA
  ?myRegDeleteValue@CRegistry@@AEAAJPEAUHKEY__@@PEBG@Z DATA
  ?myRegEnumKey@CRegistry@@AEAAJPEAUHKEY__@@KPEAGK@Z DATA
  ?myRegEnumValue@CRegistry@@AEAAJPEAUHKEY__@@KPEAGPEAK22PEAE2@Z DATA
  ?myRegOpenKeyEx@CRegistry@@AEAAJPEAUHKEY__@@PEBGKKPEAPEAU2@@Z DATA
  ?myRegQueryInfoKey@CRegistry@@AEAAJPEAUHKEY__@@PEAGPEAK22222222PEAU_FILETIME@@@Z DATA
  ?myRegQueryValueEx@CRegistry@@AEAAJPEAUHKEY__@@PEBGPEAK2PEAE2@Z DATA
  ?myRegSetValueEx@CRegistry@@AEAAJPEAUHKEY__@@PEBGKKPEBEK@Z DATA
  ?NextSubKey@CRegistry@@QEAAKXZ DATA
  ?NextToken@CObjectPathParser@@AEAAHXZ DATA
  ?NormalizePath@@YAKPEBG00KAEAVCHString@@@Z DATA
  ?ns_list@CObjectPathParser@@AEAAHXZ DATA
  ?ns_list_rest@CObjectPathParser@@AEAAHXZ DATA
  ?ns_or_class@CObjectPathParser@@AEAAHXZ DATA
  ?ns_or_server@CObjectPathParser@@AEAAHXZ DATA
  ?NullOutUnsetProperties@CWbemProviderGlue@@AEAAJPEAUIWbemClassObject@@PEAPEAU2@AEBUtagVARIANT@@@Z DATA
  ?objref@CObjectPathParser@@AEAAHXZ DATA
  ?objref_rest@CObjectPathParser@@AEAAHXZ DATA
  ?OnFinalRelease@CThreadBase@@MEAAXXZ DATA
  ?Open@CRegistry@@QEAAJPEAUHKEY__@@PEBGK@Z DATA
  ?OpenAndEnumerateSubKeys@CRegistry@@QEAAJPEAUHKEY__@@PEBGK@Z DATA
  ?OpenCurrentUser@CRegistry@@QEAAKPEBGK@Z DATA
  ?OpenLocalMachineKeyAndReadValue@CRegistry@@QEAAJPEBG0AEAVCHString@@@Z DATA
  ?OpenNamespace@CWbemProviderGlue@@UEAAJQEAGJPEAUIWbemContext@@PEAPEAUIWbemServices@@PEAPEAUIWbemCallResult@@@Z DATA
  ?OpenSubKey@CRegistry@@AEAAKXZ DATA
  ?optional_objref@CObjectPathParser@@AEAAHXZ DATA
  ?Parse@CObjectPathParser@@QEAAHPEBGPEAPEAUParsedObjectPath@@@Z DATA
  ?PrepareToReOpen@CRegistry@@AEAAXXZ DATA
  ?PreProcessPutInstanceParms@CWbemProviderGlue@@AEAAJPEAUIWbemClassObject@@PEAPEAU2@PEAUIWbemContext@@@Z DATA
  ?propname@CObjectPathParser@@AEAAHXZ DATA
  ?PutClass@CWbemProviderGlue@@UEAAJPEAUIWbemClassObject@@JPEAUIWbemContext@@PEAPEAUIWbemCallResult@@@Z DATA
  ?PutClassAsync@CWbemProviderGlue@@UEAAJPEAUIWbemClassObject@@JPEAUIWbemContext@@PEAUIWbemObjectSink@@@Z DATA
  ?PutInstance@CWbemProviderGlue@@UEAAJPEAUIWbemClassObject@@JPEAUIWbemContext@@PEAPEAUIWbemCallResult@@@Z DATA
  ?PutInstance@Provider@@AEAAJPEAUIWbemClassObject@@JPEAVMethodContext@@@Z DATA
  ?PutInstance@Provider@@MEAAJAEBVCInstance@@J@Z DATA
  ?PutInstanceAsync@CWbemProviderGlue@@UEAAJPEAUIWbemClassObject@@JPEAUIWbemContext@@PEAUIWbemObjectSink@@@Z DATA
  ?QueryInterface@CWbemGlueFactory@@UEAAJAEBU_GUID@@PEAPEAX@Z DATA
  ?QueryInterface@CWbemProviderGlue@@UEAAJAEBU_GUID@@PEAPEAX@Z DATA
  ?QueryObjectSink@CWbemProviderGlue@@UEAAJJPEAPEAUIWbemObjectSink@@@Z DATA
  ?QueryPostProcess@MethodContext@@UEAAXXZ DATA
  ?RegisterForMessage@CWinMsgEvent@@IEAAXIH@Z DATA
  ?Release@CHString@@QEAAXXZ DATA
  ?Release@CHString@@SAXPEAUCHStringData@@@Z DATA
  ?Release@CInstance@@QEAAJXZ DATA
  ?Release@CThreadBase@@QEAAJXZ DATA
  ?Release@CWbemGlueFactory@@UEAAKXZ DATA
  ?Release@CWbemProviderGlue@@UEAAKXZ DATA
  ?Release@MethodContext@@QEAAJXZ DATA
  ?ReleaseBuffer@CHString@@QEAAXH@Z DATA
  ?RemoveAll@CHPtrArray@@QEAAXXZ DATA
  ?RemoveAll@CHStringArray@@QEAAXXZ DATA
  ?RemoveAt@CHPtrArray@@QEAAXHH@Z DATA
  ?RemoveAt@CHStringArray@@QEAAXHH@Z DATA
  ?RemoveFromFactoryMap@CWbemProviderGlue@@KAXPEBVCWbemGlueFactory@@@Z DATA
  ?Reset@CFrameworkQuery@@AEAAXXZ DATA
  ?ReverseFind@CHString@@QEBAHG@Z DATA
  ?RewindSubKeys@CRegistry@@QEAAXXZ DATA
  ?Right@CHString@@QEBA?AV1@H@Z DATA
  ?SafeStrlen@CHString@@KAHPEBG@Z DATA
  ?SearchAndBuildList@CRegistrySearch@@QEAAHVCHString@@AEAVCHPtrArray@@00HPEAUHKEY__@@@Z DATA
  ?SearchMapForProvider@CWbemProviderGlue@@CAPEAVProvider@@PEBG0@Z DATA
  ?SetAt@CHPtrArray@@QEAAXHPEAX@Z DATA
  ?SetAt@CHString@@QEAAXHG@Z DATA
  ?SetAt@CHStringArray@@QEAAXHPEBG@Z DATA
  ?SetAtGrow@CHPtrArray@@QEAAXHPEAX@Z DATA
  ?SetAtGrow@CHStringArray@@QEAAXHPEBG@Z DATA
  ?Setbool@CInstance@@QEAA_NPEBG_N@Z DATA
  ?SetByte@CInstance@@QEAA_NPEBGE@Z DATA
  ?SetCharSplat@CInstance@@QEAA_NPEBG0@Z DATA
  ?SetCharSplat@CInstance@@QEAA_NPEBGK@Z DATA
  ?SetCharSplat@CInstance@@QEAA_NPEBGPEBD@Z DATA
  ?SetCHString@CInstance@@QEAA_NPEBG0@Z DATA
  ?SetCHString@CInstance@@QEAA_NPEBGAEBVCHString@@@Z DATA
  ?SetCHString@CInstance@@QEAA_NPEBGPEBD@Z DATA
  ?SetCHStringResourceHandle@@YAXPEAUHINSTANCE__@@@Z DATA
  ?SetClassName@ParsedObjectPath@@QEAAHPEBG@Z DATA
  ?SetCreationClassName@Provider@@IEAA_NPEAVCInstance@@@Z DATA
  ?SetCurrentKeyValue@CRegistry@@QEAAKPEAUHKEY__@@PEBGAEAK@Z DATA
  ?SetCurrentKeyValue@CRegistry@@QEAAKPEAUHKEY__@@PEBGAEAVCHString@@@Z DATA
  ?SetCurrentKeyValue@CRegistry@@QEAAKPEAUHKEY__@@PEBGAEAVCHStringArray@@@Z DATA
  ?SetCurrentKeyValue@CRegistry@@QEAAKPEBGAEAK@Z DATA
  ?SetCurrentKeyValue@CRegistry@@QEAAKPEBGAEAVCHString@@@Z DATA
  ?SetCurrentKeyValue@CRegistry@@QEAAKPEBGAEAVCHStringArray@@@Z DATA
  ?SetCurrentKeyValueExpand@CRegistry@@QEAAKPEAUHKEY__@@PEBGAEAVCHString@@@Z DATA
  ?SetDateTime@CInstance@@QEAA_NPEBGAEBVWBEMTime@@@Z DATA
  ?SetDefaultValues@CRegistry@@AEAAXXZ DATA
  ?SetDMTF@WBEMTime@@QEAAHQEAG@Z DATA
  ?SetDOUBLE@CInstance@@QEAA_NPEBGN@Z DATA
  ?SetDWORD@CInstance@@QEAA_NPEBGK@Z DATA
  ?SetEmbeddedObject@CInstance@@QEAA_NPEBGAEAV1@@Z DATA
  ?SetKeyFromParsedObjectPath@Provider@@AEAAHPEAVCInstance@@PEAUParsedObjectPath@@@Z DATA
  ?SetNull@CInstance@@QEAA_NPEBG@Z DATA
  ?SetPlatformID@CRegistry@@CAHXZ DATA
  ?SetSize@CHPtrArray@@QEAAXHH@Z DATA
  ?SetSize@CHStringArray@@QEAAXHH@Z DATA
  ?SetStatusObject@CWbemProviderGlue@@SA_NPEAVMethodContext@@PEBG1JPEBUtagSAFEARRAY@@2@Z DATA
  ?SetStatusObject@MethodContext@@QEAA_NPEAUIWbemClassObject@@@Z DATA
  ?SetStringArray@CInstance@@QEAA_NPEBGAEBUtagSAFEARRAY@@@Z DATA
  ?SetTimeSpan@CInstance@@QEAA_NPEBGAEBVWBEMTimeSpan@@@Z DATA
  ?SetVariant@CInstance@@QEAA_NPEBGAEBUtagVARIANT@@@Z DATA
  ?SetWBEMINT16@CInstance@@QEAA_NPEBGAEBF@Z DATA
  ?SetWBEMINT64@CInstance@@QEAA_NPEBG_J@Z DATA
  ?SetWBEMINT64@CInstance@@QEAA_NPEBG_K@Z DATA
  ?SetWBEMINT64@CInstance@@QEAA_NPEBGAEBVCHString@@@Z DATA
  ?SetWCHARSplat@CInstance@@QEAA_NPEBG0@Z DATA
  ?SetWORD@CInstance@@QEAA_NPEBGG@Z DATA
  ?Signal@CAutoEvent@@QEAAHXZ DATA
  ?SpanExcluding@CHString@@QEBA?AV1@PEBG@Z DATA
  ?SpanIncluding@CHString@@QEBA?AV1@PEBG@Z DATA
  ?TrimLeft@CHString@@QEAAXXZ DATA
  ?TrimRight@CHString@@QEAAXXZ DATA
  ?UnInit@CWbemProviderGlue@@CAXXZ DATA
  ?Unlock@CThreadBase@@AEAAXXZ DATA
  ?UnlockBuffer@CHString@@QEAAXXZ DATA
  ?UnlockFactoryMap@CWbemProviderGlue@@CAXXZ DATA
  ?UnlockProviderMap@CWbemProviderGlue@@CAXXZ DATA
  ?Unparse@CObjectPathParser@@SAHPEAUParsedObjectPath@@PEAPEAG@Z DATA
  ?UnRegisterAllMessages@CWinMsgEvent@@IEAAXXZ DATA
  ?UnRegisterMessage@CWinMsgEvent@@IEAA_NIH@Z DATA
  ?ValidateDeletionFlags@Provider@@MEAAJJ@Z DATA
  ?ValidateEnumerationFlags@Provider@@MEAAJJ@Z DATA
  ?ValidateFlags@Provider@@IEAAJJW4FlagDefs@1@@Z DATA
  ?ValidateGetObjFlags@Provider@@MEAAJJ@Z DATA
  ?ValidateIMOSPointer@Provider@@AEAAHXZ DATA
  ?ValidateMethodFlags@Provider@@MEAAJJ@Z DATA
  ?ValidatePutInstanceFlags@Provider@@MEAAJJ@Z DATA
  ?ValidateQueryFlags@Provider@@MEAAJJ@Z DATA
  ?Wait@CAutoEvent@@QEAAKK@Z DATA
  ?WindowsDispatch@CWinMsgEvent@@CAXXZ DATA
  ?Zero@CObjectPathParser@@AEAAXXZ DATA
  DoCmd
