; This file is automatically generated from the corresponding import library
; from Microsoft Windows SDK. Permission to use, copy, modify, and/or
; distribute this software for any purpose with or without fee is hereby
; granted. No copyright is reserved.
;
; In order to generate an import library with GNU DLLTOOL, the `--kill-at`
; option is required.
;
; THE SOFTWARE IS PROVIDED "AS IS" AND THE AUTHOR DISCLAIMS ALL
; WARRANTIES WITH REGARD TO THIS SOFTWARE INCLUDING ALL IMPLIED WARRANTIES
; OF MERCHANTABILITY AND FITNESS. IN NO EVENT SHALL THE AUTHOR BE LIABLE
; FOR ANY SPECIAL, DIRECT, INDIRECT, OR CONSEQUENTIAL DAMAGES OR ANY
; DAMAGES WHATSOEVER RESULTING FROM LOSS OF USE, DATA OR PROFITS, WHETHER IN
; AN ACTION OF CONTRACT, NEGLIGENCE OR OTHER TORTIOUS ACTION, ARISING OUT
; OF OR IN CONNECTION WITH THE USE OR PERFORMANCE OF THIS SOFTWARE.

LIBRARY "vssapi.dll"
EXPORTS
  ??0CVssJetWriter@@QEAA@XZ DATA
  ??1CVssJetWriter@@UEAA@XZ DATA
  ?AreComponentsSelected@CVssJetWriter@@IEBA_NXZ DATA
  ?GetBackupType@CVssJetWriter@@IEBA?AW4_VSS_BACKUP_TYPE@@XZ DATA
  ?GetContext@CVssJetWriter@@IEBAJXZ DATA
  ?GetCurrentLevel@CVssJetWriter@@IEBA?AW4_VSS_APPLICATION_LEVEL@@XZ DATA
  ?GetCurrentSnapshotSetId@CVssJetWriter@@IEBA?AU_GUID@@XZ DATA
  ?GetCurrentVolumeArray@CVssJetWriter@@IEBAPEAPEBGXZ DATA
  ?GetCurrentVolumeCount@CVssJetWriter@@IEBAIXZ DATA
  ?GetRestoreType@CVssJetWriter@@IEBA?AW4_VSS_RESTORE_TYPE@@XZ DATA
  ?GetSnapshotDeviceName@CVssJetWriter@@IEBAJPEBGPEAPEBG@Z DATA
  ?Initialize@CVssJetWriter@@QEAAJU_GUID@@PEBG_N211K@Z DATA
  ?IsBootableSystemStateBackedUp@CVssJetWriter@@IEBA_NXZ DATA
  ?IsPartialFileSupportEnabled@CVssJetWriter@@IEBA_NXZ DATA
  ?IsPathAffected@CVssJetWriter@@IEBA_NPEBG@Z DATA
  ?OnAbortBegin@CVssJetWriter@@UEAAXXZ DATA
  ?OnAbortEnd@CVssJetWriter@@UEAAXXZ DATA
  ?OnBackupCompleteBegin@CVssJetWriter@@UEAA_NPEAVIVssWriterComponents@@@Z DATA
  ?OnBackupCompleteEnd@CVssJetWriter@@UEAA_NPEAVIVssWriterComponents@@_N@Z DATA
  ?OnFreezeBegin@CVssJetWriter@@UEAA_NXZ DATA
  ?OnFreezeEnd@CVssJetWriter@@UEAA_N_N@Z DATA
  ?OnIdentify@CVssJetWriter@@UEAA_NPEAVIVssCreateWriterMetadata@@@Z DATA
  ?OnPostRestoreBegin@CVssJetWriter@@UEAA_NPEAVIVssWriterComponents@@@Z DATA
  ?OnPostRestoreEnd@CVssJetWriter@@UEAA_NPEAVIVssWriterComponents@@_N@Z DATA
  ?OnPostSnapshot@CVssJetWriter@@UEAA_NPEAVIVssWriterComponents@@@Z DATA
  ?OnPrepareBackupBegin@CVssJetWriter@@UEAA_NPEAVIVssWriterComponents@@@Z DATA
  ?OnPrepareBackupEnd@CVssJetWriter@@UEAA_NPEAVIVssWriterComponents@@_N@Z DATA
  ?OnPrepareSnapshotBegin@CVssJetWriter@@UEAA_NXZ DATA
  ?OnPrepareSnapshotEnd@CVssJetWriter@@UEAA_N_N@Z DATA
  ?OnPreRestoreBegin@CVssJetWriter@@UEAA_NPEAVIVssWriterComponents@@@Z DATA
  ?OnPreRestoreEnd@CVssJetWriter@@UEAA_NPEAVIVssWriterComponents@@_N@Z DATA
  ?OnThawBegin@CVssJetWriter@@UEAA_NXZ DATA
  ?OnThawEnd@CVssJetWriter@@UEAA_N_N@Z DATA
  ?SetWriterFailure@CVssJetWriter@@IEAAJJ@Z DATA
  ?Uninitialize@CVssJetWriter@@QEAAXXZ DATA
  CreateVssBackupComponentsInternal
  CreateVssExamineWriterMetadataInternal
  CreateVssExpressWriterInternal
  CreateVssSnapshotSetDescription
  CreateWriter
  CreateWriterEx
  GetProviderMgmtInterfaceInternal
  IsVolumeSnapshottedInternal
  LoadVssSnapshotSetDescription
  ShouldBlockRevertInternal
  VssFreeSnapshotPropertiesInternal
