; This file is automatically generated from the corresponding import library
; from Microsoft Windows SDK. Permission to use, copy, modify, and/or
; distribute this software for any purpose with or without fee is hereby
; granted. No copyright is reserved.
;
; In order to generate an import library with GNU DLLTOOL, the `--kill-at`
; option is required.
;
; THE SOFTWARE IS PROVIDED "AS IS" AND THE AUTHOR DISCLAIMS ALL
; WARRANTIES WITH REGARD TO THIS SOFTWARE INCLUDING ALL IMPLIED WARRANTIES
; OF MERCHANTABILITY AND FITNESS. IN NO EVENT SHALL THE AUTHOR BE LIABLE
; FOR ANY SPECIAL, DIRECT, INDIRECT, OR CONSEQUENTIAL DAMAGES OR ANY
; DAMAGES WHATSOEVER RESULTING FROM LOSS OF USE, DATA OR PROFITS, WHETHER IN
; AN ACTION OF CONTRACT, NEGLIGENCE OR OTHER TORTIOUS ACTION, ARISING OUT
; OF OR IN CONNECTION WITH THE USE OR PERFORMANCE OF THIS SOFTWARE.

LIBRARY "chakra.dll"
EXPORTS
  ?CreateChakraEngine@@YAPEAVChakraEngine@@XZ
  ?DumpDiagInfo@@YAXPEAUHWND__@@PEAUHINSTANCE__@@PEADH@Z
  ?JsDiscardBackgroundParse@@YA_NKPEAX@Z
  ?JsInitializeJITServer@@YAJPEAU_GUID@@PEAX1@Z
  ?JsQueueBackgroundParse@@YAJPEAUScriptContents@JsStaticAPI@@PEAK@Z
  ?MemProtectHeapAddRootSection@@YAXPEAXPEAUMemProtectHeapRootSection@@@Z
  ?MemProtectHeapCollect@@YAJPEAXW4MemProtectHeapCollectFlags@@@Z
  ?MemProtectHeapCreate@@YAJPEAPEAXW4MemProtectHeapCreateFlags@@@Z
  ?MemProtectHeapDestroy@@YAJPEAX@Z
  ?MemProtectHeapDisableCollection@@YAXPEAX@Z
  ?MemProtectHeapIsValidObject@@YA_NPEAX0@Z
  ?MemProtectHeapMemSize@@YAJPEAX0PEA_K@Z
  ?MemProtectHeapNotifyCurrentThreadDetach@@YAXPEAX@Z
  ?MemProtectHeapProtectCurrentThread@@YAJPEAXP6AX0@Z0@Z
  ?MemProtectHeapRemoveRootSection@@YAJPEAXPEAUMemProtectHeapRootSection@@@Z
  ?MemProtectHeapReportHeapSize@@YAXPEAX@Z
  ?MemProtectHeapRootAlloc@@YAPEAXPEAX_K@Z
  ?MemProtectHeapRootAllocLeaf@@YAPEAXPEAX_K@Z
  ?MemProtectHeapRootRealloc@@YAJPEAX_KPEAPEAX@Z
  ?MemProtectHeapRootReallocLeaf@@YAJPEAX_KPEAPEAX@Z
  ?MemProtectHeapSynchronizeWithCollector@@YAJPEAX@Z
  ?MemProtectHeapUnprotectCurrentThread@@YAJPEAX@Z
  ?MemProtectHeapUnrootAndZero@@YAJPEAX0@Z
  ?RecyclerNativeHeapAddExternalMemoryUsage@@YAXPEAX_K@Z
  ?RecyclerNativeHeapAllocLeaf@@YAPEAXPEAX_K@Z
  ?RecyclerNativeHeapAllocLeafFinalized@@YAPEAXPEAX_K@Z
  ?RecyclerNativeHeapAllocTraced@@YAPEAXPEAX_K@Z
  ?RecyclerNativeHeapAllocTracedFinalized@@YAPEAXPEAX_K@Z
  ?RecyclerNativeHeapCollectGarbageInThread@@YAXPEAX_N@Z
  ?RecyclerNativeHeapCreateWeakReference@@YAJPEAX0PEAPEAX@Z
  ?RecyclerNativeHeapGetRealAddressFromInterior@@YAPEAXPEAX0@Z
  ?RecyclerNativeHeapGetStrongReference@@YAPEAXPEAX0@Z
  ?RecyclerNativeHeapHasWeakReferenceCleanupOccurred@@YA_NPEAXPEA_K@Z
  ?RecyclerNativeHeapRootAddRef@@YAJPEAX0PEAI@Z
  ?RecyclerNativeHeapRootRelease@@YAXPEAX0PEAI@Z
  JsAddRef
  JsBooleanToBool
  JsBoolToBoolean
  JsCallFunction
  JsCollectGarbage
  JsConstructObject
  JsConvertValueToBoolean
  JsConvertValueToNumber
  JsConvertValueToObject
  JsConvertValueToString
  JsCreateArray
  JsCreateArrayBuffer
  JsCreateContext
  JsCreateDataView
  JsCreateError
  JsCreateExternalArrayBuffer
  JsCreateExternalObject
  JsCreateFunction
  JsCreateNamedFunction
  JsCreateObject
  JsCreateRangeError
  JsCreateReferenceError
  JsCreateRuntime
  JsCreateSymbol
  JsCreateSyntaxError
  JsCreateThreadService
  JsCreateTypedArray
  JsCreateTypeError
  JsCreateURIError
  JsDefineProperty
  JsDeleteIndexedProperty
  JsDeleteProperty
  JsDisableRuntimeExecution
  JsDisposeRuntime
  JsDoubleToNumber
  JsEnableRuntimeExecution
  JsEnumerateHeap
  JsEquals
  JsGetAndClearException
  JsGetArrayBufferStorage
  JsGetContextData
  JsGetContextOfObject
  JsGetCurrentContext
  JsGetDataViewStorage
  JsGetExtensionAllowed
  JsGetExternalData
  JsGetFalseValue
  JsGetGlobalObject
  JsGetIndexedPropertiesExternalData
  JsGetIndexedProperty
  JsGetNullValue
  JsGetOwnPropertyDescriptor
  JsGetOwnPropertyNames
  JsGetOwnPropertySymbols
  JsGetProperty
  JsGetPropertyIdFromName
  JsGetPropertyIdFromSymbol
  JsGetPropertyIdType
  JsGetPropertyNameFromId
  JsGetPrototype
  JsGetRuntime
  JsGetRuntimeMemoryLimit
  JsGetRuntimeMemoryUsage
  JsGetStringLength
  JsGetSymbolFromPropertyId
  JsGetTrueValue
  JsGetTypedArrayInfo
  JsGetTypedArrayStorage
  JsGetUndefinedValue
  JsGetValueType
  JsHasException
  JsHasExternalData
  JsHasIndexedPropertiesExternalData
  JsHasIndexedProperty
  JsHasProperty
  JsIdle
  JsInspectableToObject
  JsInstanceOf
  JsIntToNumber
  JsIsEnumeratingHeap
  JsIsRuntimeExecutionDisabled
  JsNumberToDouble
  JsNumberToInt
  JsObjectToInspectable
  JsParseScript
  JsParseScriptWithAttributes
  JsParseSerializedScript
  JsParseSerializedScriptWithCallback
  JsPointerToString
  JsPreventExtension
  JsProjectWinRTNamespace
  JsRelease
  JsRunScript
  JsRunSerializedScript
  JsRunSerializedScriptWithCallback
  JsSerializeScript
  JsSetContextData
  JsSetCurrentContext
  JsSetException
  JsSetExternalData
  JsSetIndexedPropertiesToExternalData
  JsSetIndexedProperty
  JsSetObjectBeforeCollectCallback
  JsSetProjectionEnqueueCallback
  JsSetPromiseContinuationCallback
  JsSetProperty
  JsSetPrototype
  JsSetRuntimeBeforeCollectCallback
  JsSetRuntimeMemoryAllocationCallback
  JsSetRuntimeMemoryLimit
  JsStartDebugging
  JsStartProfiling
  JsStopProfiling
  JsStrictEquals
  JsStringToPointer
  JsValueToVariant
  JsVarAddRef
  JsVariantToValue
  JsVarRelease
  JsVarToExtension
