; This file is automatically generated from the corresponding import library
; from Microsoft Windows SDK. Permission to use, copy, modify, and/or
; distribute this software for any purpose with or without fee is hereby
; granted. No copyright is reserved.
;
; In order to generate an import library with GNU DLLTOOL, the `--kill-at`
; option is required.
;
; THE SOFTWARE IS PROVIDED "AS IS" AND THE AUTHOR DISCLAIMS ALL
; WARRANTIES WITH REGARD TO THIS SOFTWARE INCLUDING ALL IMPLIED WARRANTIES
; OF MERCHANTABILITY AND FITNESS. IN NO EVENT SHALL THE AUTHOR BE LIABLE
; FOR ANY SPECIAL, DIRECT, INDIRECT, OR CONSEQUENTIAL DAMAGES OR ANY
; DAMAGES WHATSOEVER RESULTING FROM LOSS OF USE, DATA OR PROFITS, WHETHER IN
; AN ACTION OF CONTRACT, NEGLIGENCE OR OTHER TORTIOUS ACTION, ARISING OUT
; OF OR IN CONNECTION WITH THE USE OR PERFORMANCE OF THIS SOFTWARE.

LIBRARY "chakra.dll"
EXPORTS
  #?CreateChakraEngine@@YAPEAVChakraEngine@@XZ DATA
  #?DumpDiagInfo@@YAXPEAUHWND__@@PEAUHINSTANCE__@@PEADH@Z DATA
  #?JsDiscardBackgroundParse@@YA_NKPEAX@Z DATA
  #?JsInitializeJITServer@@YAJPEAU_GUID@@PEAX1@Z DATA
  #?JsQueueBackgroundParse@@YAJPEAUScriptContents@JsStaticAPI@@PEAK@Z DATA
  #?MemProtectHeapAddRootSection@@YAXPEAXPEAUMemProtectHeapRootSection@@@Z DATA
  #?MemProtectHeapCollect@@YAJPEAXW4MemProtectHeapCollectFlags@@@Z DATA
  #?MemProtectHeapCreate@@YAJPEAPEAXW4MemProtectHeapCreateFlags@@@Z DATA
  #?MemProtectHeapDestroy@@YAJPEAX@Z DATA
  #?MemProtectHeapDisableCollection@@YAXPEAX@Z DATA
  #?MemProtectHeapIsValidObject@@YA_NPEAX0@Z DATA
  #?MemProtectHeapMemSize@@YAJPEAX0PEA_K@Z DATA
  #?MemProtectHeapNotifyCurrentThreadDetach@@YAXPEAX@Z DATA
  #?MemProtectHeapProtectCurrentThread@@YAJPEAXP6AX0@Z0@Z DATA
  #?MemProtectHeapRemoveRootSection@@YAJPEAXPEAUMemProtectHeapRootSection@@@Z DATA
  #?MemProtectHeapReportHeapSize@@YAXPEAX@Z DATA
  #?MemProtectHeapRootAlloc@@YAPEAXPEAX_K@Z DATA
  #?MemProtectHeapRootAllocLeaf@@YAPEAXPEAX_K@Z DATA
  #?MemProtectHeapRootRealloc@@YAJPEAX_KPEAPEAX@Z DATA
  #?MemProtectHeapRootReallocLeaf@@YAJPEAX_KPEAPEAX@Z DATA
  #?MemProtectHeapSynchronizeWithCollector@@YAJPEAX@Z DATA
  #?MemProtectHeapUnprotectCurrentThread@@YAJPEAX@Z DATA
  #?MemProtectHeapUnrootAndZero@@YAJPEAX0@Z DATA
  #?RecyclerNativeHeapAddExternalMemoryUsage@@YAXPEAX_K@Z DATA
  #?RecyclerNativeHeapAllocLeaf@@YAPEAXPEAX_K@Z DATA
  #?RecyclerNativeHeapAllocLeafFinalized@@YAPEAXPEAX_K@Z DATA
  #?RecyclerNativeHeapAllocTraced@@YAPEAXPEAX_K@Z DATA
  #?RecyclerNativeHeapAllocTracedFinalized@@YAPEAXPEAX_K@Z DATA
  #?RecyclerNativeHeapCollectGarbageInThread@@YAXPEAX_N@Z DATA
  #?RecyclerNativeHeapCreateWeakReference@@YAJPEAX0PEAPEAX@Z DATA
  #?RecyclerNativeHeapGetRealAddressFromInterior@@YAPEAXPEAX0@Z DATA
  #?RecyclerNativeHeapGetStrongReference@@YAPEAXPEAX0@Z DATA
  #?RecyclerNativeHeapHasWeakReferenceCleanupOccurred@@YA_NPEAXPEA_K@Z DATA
  #?RecyclerNativeHeapRootAddRef@@YAJPEAX0PEAI@Z DATA
  #?RecyclerNativeHeapRootRelease@@YAXPEAX0PEAI@Z DATA
  #JsAddRef DATA
  #JsBooleanToBool DATA
  #JsBoolToBoolean DATA
  #JsCallFunction DATA
  #JsCollectGarbage DATA
  #JsConstructObject DATA
  #JsConvertValueToBoolean DATA
  #JsConvertValueToNumber DATA
  #JsConvertValueToObject DATA
  #JsConvertValueToString DATA
  #JsCreateArray DATA
  #JsCreateArrayBuffer DATA
  #JsCreateContext DATA
  #JsCreateDataView DATA
  #JsCreateError DATA
  #JsCreateExternalArrayBuffer DATA
  #JsCreateExternalObject DATA
  #JsCreateFunction DATA
  #JsCreateNamedFunction DATA
  #JsCreateObject DATA
  #JsCreateRangeError DATA
  #JsCreateReferenceError DATA
  #JsCreateRuntime DATA
  #JsCreateSymbol DATA
  #JsCreateSyntaxError DATA
  #JsCreateThreadService DATA
  #JsCreateTypedArray DATA
  #JsCreateTypeError DATA
  #JsCreateURIError DATA
  #JsDefineProperty DATA
  #JsDeleteIndexedProperty DATA
  #JsDeleteProperty DATA
  #JsDisableRuntimeExecution DATA
  #JsDisposeRuntime DATA
  #JsDoubleToNumber DATA
  #JsEnableRuntimeExecution DATA
  #JsEnumerateHeap DATA
  #JsEquals DATA
  #JsGetAndClearException DATA
  #JsGetArrayBufferStorage DATA
  #JsGetContextData DATA
  #JsGetContextOfObject DATA
  #JsGetCurrentContext DATA
  #JsGetDataViewStorage DATA
  #JsGetExtensionAllowed DATA
  #JsGetExternalData DATA
  #JsGetFalseValue DATA
  #JsGetGlobalObject DATA
  #JsGetIndexedPropertiesExternalData DATA
  #JsGetIndexedProperty DATA
  #JsGetNullValue DATA
  #JsGetOwnPropertyDescriptor DATA
  #JsGetOwnPropertyNames DATA
  #JsGetOwnPropertySymbols DATA
  #JsGetProperty DATA
  #JsGetPropertyIdFromName DATA
  #JsGetPropertyIdFromSymbol DATA
  #JsGetPropertyIdType DATA
  #JsGetPropertyNameFromId DATA
  #JsGetPrototype DATA
  #JsGetRuntime DATA
  #JsGetRuntimeMemoryLimit DATA
  #JsGetRuntimeMemoryUsage DATA
  #JsGetStringLength DATA
  #JsGetSymbolFromPropertyId DATA
  #JsGetTrueValue DATA
  #JsGetTypedArrayInfo DATA
  #JsGetTypedArrayStorage DATA
  #JsGetUndefinedValue DATA
  #JsGetValueType DATA
  #JsHasException DATA
  #JsHasExternalData DATA
  #JsHasIndexedPropertiesExternalData DATA
  #JsHasIndexedProperty DATA
  #JsHasProperty DATA
  #JsIdle DATA
  #JsInspectableToObject DATA
  #JsInstanceOf DATA
  #JsIntToNumber DATA
  #JsIsEnumeratingHeap DATA
  #JsIsRuntimeExecutionDisabled DATA
  #JsNumberToDouble DATA
  #JsNumberToInt DATA
  #JsObjectToInspectable DATA
  #JsParseScript DATA
  #JsParseScriptWithAttributes DATA
  #JsParseSerializedScript DATA
  #JsParseSerializedScriptWithCallback DATA
  #JsPointerToString DATA
  #JsPreventExtension DATA
  #JsProjectWinRTNamespace DATA
  #JsRelease DATA
  #JsRunScript DATA
  #JsRunSerializedScript DATA
  #JsRunSerializedScriptWithCallback DATA
  #JsSerializeScript DATA
  #JsSetContextData DATA
  #JsSetCurrentContext DATA
  #JsSetException DATA
  #JsSetExternalData DATA
  #JsSetIndexedPropertiesToExternalData DATA
  #JsSetIndexedProperty DATA
  #JsSetObjectBeforeCollectCallback DATA
  #JsSetProjectionEnqueueCallback DATA
  #JsSetPromiseContinuationCallback DATA
  #JsSetProperty DATA
  #JsSetPrototype DATA
  #JsSetRuntimeBeforeCollectCallback DATA
  #JsSetRuntimeMemoryAllocationCallback DATA
  #JsSetRuntimeMemoryLimit DATA
  #JsStartDebugging DATA
  #JsStartProfiling DATA
  #JsStopProfiling DATA
  #JsStrictEquals DATA
  #JsStringToPointer DATA
  #JsValueToVariant DATA
  #JsVarAddRef DATA
  #JsVariantToValue DATA
  #JsVarRelease DATA
  #JsVarToExtension DATA
  ?CreateChakraEngine@@YAPEAVChakraEngine@@XZ
  ?DumpDiagInfo@@YAXPEAUHWND__@@PEAUHINSTANCE__@@PEADH@Z
  ?JsDiscardBackgroundParse@@YA_NKPEAX@Z
  ?JsInitializeJITServer@@YAJPEAU_GUID@@PEAX1@Z
  ?JsQueueBackgroundParse@@YAJPEAUScriptContents@JsStaticAPI@@PEAK@Z
  ?MemProtectHeapAddRootSection@@YAXPEAXPEAUMemProtectHeapRootSection@@@Z
  ?MemProtectHeapCollect@@YAJPEAXW4MemProtectHeapCollectFlags@@@Z
  ?MemProtectHeapCreate@@YAJPEAPEAXW4MemProtectHeapCreateFlags@@@Z
  ?MemProtectHeapDestroy@@YAJPEAX@Z
  ?MemProtectHeapDisableCollection@@YAXPEAX@Z
  ?MemProtectHeapIsValidObject@@YA_NPEAX0@Z
  ?MemProtectHeapMemSize@@YAJPEAX0PEA_K@Z
  ?MemProtectHeapNotifyCurrentThreadDetach@@YAXPEAX@Z
  ?MemProtectHeapProtectCurrentThread@@YAJPEAXP6AX0@Z0@Z
  ?MemProtectHeapRemoveRootSection@@YAJPEAXPEAUMemProtectHeapRootSection@@@Z
  ?MemProtectHeapReportHeapSize@@YAXPEAX@Z
  ?MemProtectHeapRootAlloc@@YAPEAXPEAX_K@Z
  ?MemProtectHeapRootAllocLeaf@@YAPEAXPEAX_K@Z
  ?MemProtectHeapRootRealloc@@YAJPEAX_KPEAPEAX@Z
  ?MemProtectHeapRootReallocLeaf@@YAJPEAX_KPEAPEAX@Z
  ?MemProtectHeapSynchronizeWithCollector@@YAJPEAX@Z
  ?MemProtectHeapUnprotectCurrentThread@@YAJPEAX@Z
  ?MemProtectHeapUnrootAndZero@@YAJPEAX0@Z
  ?RecyclerNativeHeapAddExternalMemoryUsage@@YAXPEAX_K@Z
  ?RecyclerNativeHeapAllocLeaf@@YAPEAXPEAX_K@Z
  ?RecyclerNativeHeapAllocLeafFinalized@@YAPEAXPEAX_K@Z
  ?RecyclerNativeHeapAllocTraced@@YAPEAXPEAX_K@Z
  ?RecyclerNativeHeapAllocTracedFinalized@@YAPEAXPEAX_K@Z
  ?RecyclerNativeHeapCollectGarbageInThread@@YAXPEAX_N@Z
  ?RecyclerNativeHeapCreateWeakReference@@YAJPEAX0PEAPEAX@Z
  ?RecyclerNativeHeapGetRealAddressFromInterior@@YAPEAXPEAX0@Z
  ?RecyclerNativeHeapGetStrongReference@@YAPEAXPEAX0@Z
  ?RecyclerNativeHeapHasWeakReferenceCleanupOccurred@@YA_NPEAXPEA_K@Z
  ?RecyclerNativeHeapRootAddRef@@YAJPEAX0PEAI@Z
  ?RecyclerNativeHeapRootRelease@@YAXPEAX0PEAI@Z
  JsAddRef
  JsBooleanToBool
  JsBoolToBoolean
  JsCallFunction
  JsCollectGarbage
  JsConstructObject
  JsConvertValueToBoolean
  JsConvertValueToNumber
  JsConvertValueToObject
  JsConvertValueToString
  JsCreateArray
  JsCreateArrayBuffer
  JsCreateContext
  JsCreateDataView
  JsCreateError
  JsCreateExternalArrayBuffer
  JsCreateExternalObject
  JsCreateFunction
  JsCreateNamedFunction
  JsCreateObject
  JsCreateRangeError
  JsCreateReferenceError
  JsCreateRuntime
  JsCreateSymbol
  JsCreateSyntaxError
  JsCreateThreadService
  JsCreateTypedArray
  JsCreateTypeError
  JsCreateURIError
  JsDefineProperty
  JsDeleteIndexedProperty
  JsDeleteProperty
  JsDisableRuntimeExecution
  JsDisposeRuntime
  JsDoubleToNumber
  JsEnableRuntimeExecution
  JsEnumerateHeap
  JsEquals
  JsGetAndClearException
  JsGetArrayBufferStorage
  JsGetContextData
  JsGetContextOfObject
  JsGetCurrentContext
  JsGetDataViewStorage
  JsGetExtensionAllowed
  JsGetExternalData
  JsGetFalseValue
  JsGetGlobalObject
  JsGetIndexedPropertiesExternalData
  JsGetIndexedProperty
  JsGetNullValue
  JsGetOwnPropertyDescriptor
  JsGetOwnPropertyNames
  JsGetOwnPropertySymbols
  JsGetProperty
  JsGetPropertyIdFromName
  JsGetPropertyIdFromSymbol
  JsGetPropertyIdType
  JsGetPropertyNameFromId
  JsGetPrototype
  JsGetRuntime
  JsGetRuntimeMemoryLimit
  JsGetRuntimeMemoryUsage
  JsGetStringLength
  JsGetSymbolFromPropertyId
  JsGetTrueValue
  JsGetTypedArrayInfo
  JsGetTypedArrayStorage
  JsGetUndefinedValue
  JsGetValueType
  JsHasException
  JsHasExternalData
  JsHasIndexedPropertiesExternalData
  JsHasIndexedProperty
  JsHasProperty
  JsIdle
  JsInspectableToObject
  JsInstanceOf
  JsIntToNumber
  JsIsEnumeratingHeap
  JsIsRuntimeExecutionDisabled
  JsNumberToDouble
  JsNumberToInt
  JsObjectToInspectable
  JsParseScript
  JsParseScriptWithAttributes
  JsParseSerializedScript
  JsParseSerializedScriptWithCallback
  JsPointerToString
  JsPreventExtension
  JsProjectWinRTNamespace
  JsRelease
  JsRunScript
  JsRunSerializedScript
  JsRunSerializedScriptWithCallback
  JsSerializeScript
  JsSetContextData
  JsSetCurrentContext
  JsSetException
  JsSetExternalData
  JsSetIndexedPropertiesToExternalData
  JsSetIndexedProperty
  JsSetObjectBeforeCollectCallback
  JsSetProjectionEnqueueCallback
  JsSetPromiseContinuationCallback
  JsSetProperty
  JsSetPrototype
  JsSetRuntimeBeforeCollectCallback
  JsSetRuntimeMemoryAllocationCallback
  JsSetRuntimeMemoryLimit
  JsStartDebugging
  JsStartProfiling
  JsStopProfiling
  JsStrictEquals
  JsStringToPointer
  JsValueToVariant
  JsVarAddRef
  JsVariantToValue
  JsVarRelease
  JsVarToExtension
