; This file is automatically generated from the corresponding import library
; from Microsoft Windows SDK. Permission to use, copy, modify, and/or
; distribute this software for any purpose with or without fee is hereby
; granted. No copyright is reserved.
;
; In order to generate an import library with GNU DLLTOOL, the `--kill-at`
; option is required.
;
; THE SOFTWARE IS PROVIDED "AS IS" AND THE AUTHOR DISCLAIMS ALL
; WARRANTIES WITH REGARD TO THIS SOFTWARE INCLUDING ALL IMPLIED WARRANTIES
; OF MERCHANTABILITY AND FITNESS. IN NO EVENT SHALL THE AUTHOR BE LIABLE
; FOR ANY SPECIAL, DIRECT, INDIRECT, OR CONSEQUENTIAL DAMAGES OR ANY
; DAMAGES WHATSOEVER RESULTING FROM LOSS OF USE, DATA OR PROFITS, WHETHER IN
; AN ACTION OF CONTRACT, NEGLIGENCE OR OTHER TORTIOUS ACTION, ARISING OUT
; OF OR IN CONNECTION WITH THE USE OR PERFORMANCE OF THIS SOFTWARE.

LIBRARY "wldp.dll"
EXPORTS
  #?WldpIsAppApprovedByPolicy@@YAJPEBG_K@Z DATA
  #?WldpIsProductionConfiguration@@YAJPEAH@Z DATA
  #?WldpIsWcosProductionConfiguration@@YAJPEAH@Z DATA
  #?WldpQueryPolicySettingEnabled2@@YAJPEBGPEAH@Z DATA
  #?WldpQueryPolicySettingEnabled@@YAJW4WLDP_POLICY_SETTING@@PEAH@Z DATA
  #?WldpQueryWindowsLockdownMode@@YAJPEAW4WLDP_WINDOWS_LOCKDOWN_MODE@@@Z DATA
  #?WldpQueryWindowsLockdownRestriction@@YAJPEAW4WLDP_WINDOWS_LOCKDOWN_RESTRICTION@@@Z DATA
  #?WldpResetProductionConfiguration@@YAJXZ DATA
  #?WldpResetWcosProductionConfiguration@@YAJXZ DATA
  #?WldpSetWindowsLockdownRestriction@@YAJW4WLDP_WINDOWS_LOCKDOWN_RESTRICTION@@@Z DATA
  #WldpCanExecuteBuffer
  #WldpCanExecuteFile
  #WldpCanExecuteFileFromDetachedSignature
  #WldpCanExecuteStream
  #WldpGetApplicationSettingBoolean
  #WldpGetApplicationSettingStringList
  #WldpGetApplicationSettingStringSet
  #WldpGetLockdownPolicy
  #WldpIsClassInApprovedList
  #WldpIsDebugAllowed
  #WldpIsDynamicCodePolicyEnabled
  #WldpQueryDeviceSecurityInformation
  #WldpQueryDynamicCodeTrust
  #WldpQuerySecurityPolicy
  #WldpSetDynamicCodeTrust
  ?WldpIsAppApprovedByPolicy@@YAJPEBG_K@Z
  ?WldpIsProductionConfiguration@@YAJPEAH@Z
  ?WldpIsWcosProductionConfiguration@@YAJPEAH@Z
  ?WldpQueryPolicySettingEnabled2@@YAJPEBGPEAH@Z
  ?WldpQueryPolicySettingEnabled@@YAJW4WLDP_POLICY_SETTING@@PEAH@Z
  ?WldpQueryWindowsLockdownMode@@YAJPEAW4WLDP_WINDOWS_LOCKDOWN_MODE@@@Z
  ?WldpQueryWindowsLockdownRestriction@@YAJPEAW4WLDP_WINDOWS_LOCKDOWN_RESTRICTION@@@Z
  ?WldpResetProductionConfiguration@@YAJXZ
  ?WldpResetWcosProductionConfiguration@@YAJXZ
  ?WldpSetWindowsLockdownRestriction@@YAJW4WLDP_WINDOWS_LOCKDOWN_RESTRICTION@@@Z
  WldpCanExecuteBuffer
  WldpCanExecuteFile
  WldpCanExecuteFileFromDetachedSignature
  WldpCanExecuteStream
  WldpGetApplicationSettingBoolean
  WldpGetApplicationSettingStringList
  WldpGetApplicationSettingStringSet
  WldpGetLockdownPolicy
  WldpIsClassInApprovedList
  WldpIsDebugAllowed
  WldpIsDynamicCodePolicyEnabled
  WldpQueryDeviceSecurityInformation
  WldpQueryDynamicCodeTrust
  WldpQuerySecurityPolicy
  WldpSetDynamicCodeTrust
